; Function Attrs: mustprogress uwtable
define hidden noundef ptr @_ZN11ast_manager8mk_proofEiiP4exprS1_(ptr noundef nonnull align 8 dereferenceable(976) %0, i32 noundef %1, i32 noundef %2, ptr noundef %3, ptr noundef %4) local_unnamed_addr #7 align 2 {
  %6 = alloca [2 x ptr], align 16
  call void @llvm.lifetime.start.p0(i64 16, ptr nonnull %6) #38
  store ptr %3, ptr %6, align 16, !tbaa !124
  %7 = getelementptr inbounds nuw i8, ptr %6, i64 8
  store ptr %4, ptr %7, align 8, !tbaa !124
  %8 = getelementptr inbounds nuw i8, ptr %0, i64 712
  %9 = load i32, ptr %8, align 8, !tbaa !324
  %10 = icmp eq i32 %9, 0
  br i1 %10, label %_ZN11ast_manager8mk_proofEiijPKP4expr.exit, label %11

11:                                               ; preds = %5
  %12 = getelementptr inbounds nuw i8, ptr %0, i64 704
  %13 = load ptr, ptr %12, align 8, !tbaa !33
  %14 = icmp eq ptr %13, null
  br i1 %14, label %_ZN11ast_manager8mk_proofEiijPKP4expr.exit, label %_ZNK6vectorIP11decl_pluginLb0EjE3getEjRKS1_.exit.i.i.i.i

_ZNK6vectorIP11decl_pluginLb0EjE3getEjRKS1_.exit.i.i.i.i: ; preds = %11
  %15 = getelementptr inbounds i8, ptr %13, i64 -4
  %16 = load i32, ptr %15, align 4, !tbaa !24
  %.not.i.i.i.i.i = icmp ult i32 %1, %16
  br i1 %.not.i.i.i.i.i, label %_ZNK11ast_manager10get_pluginEi.exit.i.i.i, label %_ZN11ast_manager8mk_proofEiijPKP4expr.exit

_ZNK11ast_manager10get_pluginEi.exit.i.i.i:       ; preds = %_ZNK6vectorIP11decl_pluginLb0EjE3getEjRKS1_.exit.i.i.i.i
  %17 = zext i32 %1 to i64
  %18 = getelementptr inbounds nuw ptr, ptr %13, i64 %17
  %.then.val.i.i.i.i = load ptr, ptr %18, align 8, !tbaa !37
  %.not.i5.i.i = icmp eq ptr %.then.val.i.i.i.i, null
  br i1 %.not.i5.i.i, label %_ZN11ast_manager8mk_proofEiijPKP4expr.exit, label %_ZN11ast_manager12mk_func_declEiijPK9parameterjPKP4exprP4sort.exit.i.i

_ZN11ast_manager12mk_func_declEiijPK9parameterjPKP4exprP4sort.exit.i.i: ; preds = %_ZNK11ast_manager10get_pluginEi.exit.i.i.i
  %19 = load ptr, ptr %.then.val.i.i.i.i, align 8, !tbaa !39
  %20 = getelementptr inbounds nuw i8, ptr %19, i64 64
  %21 = load ptr, ptr %20, align 8
  %22 = call noundef ptr %21(ptr noundef nonnull align 8 dereferenceable(20) %.then.val.i.i.i.i, i32 noundef %2, i32 noundef 0, ptr noundef null, i32 noundef 2, ptr noundef nonnull %6, ptr noundef null)
  %.not.i.i.i = icmp eq ptr %22, null
  br i1 %.not.i.i.i, label %_ZN11ast_manager8mk_proofEiijPKP4expr.exit, label %23

23:                                               ; preds = %_ZN11ast_manager12mk_func_declEiijPK9parameterjPKP4exprP4sort.exit.i.i
  %24 = call noundef ptr @_ZN11ast_manager6mk_appEP9func_decljPKP4expr(ptr noundef nonnull align 8 dereferenceable(976) %0, ptr noundef nonnull %22, i32 noundef 2, ptr noundef nonnull %6)
  br label %_ZN11ast_manager8mk_proofEiijPKP4expr.exit

_ZN11ast_manager8mk_proofEiijPKP4expr.exit:       ; preds = %5, %11, %_ZNK6vectorIP11decl_pluginLb0EjE3getEjRKS1_.exit.i.i.i.i, %_ZNK11ast_manager10get_pluginEi.exit.i.i.i, %_ZN11ast_manager12mk_func_declEiijPK9parameterjPKP4exprP4sort.exit.i.i, %23
  %.0.i = phi ptr [ null, %5 ], [ %24, %23 ], [ null, %_ZN11ast_manager12mk_func_declEiijPK9parameterjPKP4exprP4sort.exit.i.i ], [ null, %_ZNK11ast_manager10get_pluginEi.exit.i.i.i ], [ null, %_ZNK6vectorIP11decl_pluginLb0EjE3getEjRKS1_.exit.i.i.i.i ], [ null, %11 ]
  call void @llvm.lifetime.end.p0(i64 16, ptr nonnull %6) #38
  ret ptr %.0.i
}